target datalayout = "e-m:e-p270:32:32-p271:32:32-p272:64:64-i64:64-i128:128-f80:128-n8:16:32:64-S128"
target triple = "x86_64-unknown-linux-gnu"

%struct.QTailQLink = type { ptr, ptr }
%struct.BlockDriverState = type { i32, i8, i8, i8, i8, i8, ptr, ptr, ptr, %struct.anon.0, i8, [4096 x i8], [4096 x i8], [4096 x i8], [16 x i8], ptr, [4096 x i8], %struct.BlockLimits, i32, i32, i32, i32, [32 x i8], %union.anon, %union.anon.1, %union.anon.2, i32, [16 x %struct.anon.3], ptr, %struct.anon.4, ptr, ptr, %struct.anon.5, ptr, ptr, i32, ptr, i64, i64, %struct.QemuMutex, %struct.anon.6, %struct.Stat64, i32, i32, i32, i32, i32, i32, %struct.QemuMutex, %struct.anon.7, %struct.CoQueue, i8, i32, i8, %struct.CoMutex, ptr, ptr }
%struct.anon.0 = type { ptr }
%struct.BlockLimits = type { i32, i64, i32, i64, i32, i32, i32, i64, i32, i64, i64, i32, i8, i32, i32, i32, i32, i32, i32, i32 }
%union.anon = type { %struct.QTailQLink }
%union.anon.1 = type { %struct.QTailQLink }
%union.anon.2 = type { %struct.QTailQLink }
%struct.anon.3 = type { ptr }
%struct.anon.4 = type { ptr }
%struct.anon.5 = type { ptr }
%struct.anon.6 = type { ptr }
%struct.Stat64 = type { i64 }
%struct.QemuMutex = type { %union.pthread_mutex_t, i8 }
%union.pthread_mutex_t = type { %struct.__pthread_mutex_s }
%struct.__pthread_mutex_s = type { i32, i32, i32, i32, i32, i16, i16, %struct.__pthread_internal_list }
%struct.__pthread_internal_list = type { ptr, ptr }
%struct.anon.7 = type { ptr }
%struct.CoQueue = type { %struct.anon.8 }
%struct.anon.8 = type { ptr, ptr }
%struct.CoMutex = type { i32, ptr, %struct.anon.9, %struct.anon.9, i32, i32, ptr }
%struct.anon.9 = type { ptr }
%struct.BDRVReplicationState = type { i32, i32, ptr, ptr, ptr, ptr, ptr, ptr, ptr, i8, i8, i32 }

; Function Attrs: nounwind sspstrong uwtable
define internal void @backup_job_cleanup(ptr noundef %bs) #0 {
entry:
  %bs.addr = alloca ptr, align 8
  %s = alloca ptr, align 8
  %top_bs = alloca ptr, align 8
  store ptr %bs, ptr %bs.addr, align 8
  %0 = load ptr, ptr %bs.addr, align 8
  %opaque = getelementptr inbounds %struct.BlockDriverState, ptr %0, i32 0, i32 7
  %1 = load ptr, ptr %opaque, align 8
  store ptr %1, ptr %s, align 8
  %2 = load ptr, ptr %s, align 8
  %backup_job = getelementptr inbounds %struct.BDRVReplicationState, ptr %2, i32 0, i32 5
  store ptr null, ptr %backup_job, align 8
  %3 = load ptr, ptr %s, align 8
  %top_id = getelementptr inbounds %struct.BDRVReplicationState, ptr %3, i32 0, i32 6
  %4 = load ptr, ptr %top_id, align 8
  %5 = load ptr, ptr %s, align 8
  %top_id1 = getelementptr inbounds %struct.BDRVReplicationState, ptr %5, i32 0, i32 6
  %6 = load ptr, ptr %top_id1, align 8
  %call = call ptr @bdrv_lookup_bs(ptr noundef %4, ptr noundef %6, ptr noundef null)
  store ptr %call, ptr %top_bs, align 8
  %7 = load ptr, ptr %top_bs, align 8
  %tobool = icmp ne ptr %7, null
  br i1 %tobool, label %if.end, label %if.then

if.then:                                          ; preds = %entry
  br label %return

if.end:                                           ; preds = %entry
  %8 = load ptr, ptr %top_bs, align 8
  %9 = load ptr, ptr %s, align 8
  %blocker = getelementptr inbounds %struct.BDRVReplicationState, ptr %9, i32 0, i32 8
  %10 = load ptr, ptr %blocker, align 8
  call void @bdrv_op_unblock_all(ptr noundef %8, ptr noundef %10)
  %11 = load ptr, ptr %s, align 8
  %blocker2 = getelementptr inbounds %struct.BDRVReplicationState, ptr %11, i32 0, i32 8
  %12 = load ptr, ptr %blocker2, align 8
  call void @error_free(ptr noundef %12)
  %13 = load ptr, ptr %bs.addr, align 8
  call void @reopen_backing_file(ptr noundef %13, i1 noundef zeroext false, ptr noundef null)
  br label %return

return:                                           ; preds = %if.end, %if.then
  ret void
}