; Function Attrs: nounwind sspstrong uwtable
define internal fastcc void @backup_job_cleanup(ptr noundef %bs) unnamed_addr #0 {
entry:
  %opaque = getelementptr inbounds nuw i8, ptr %bs, i64 24
  %0 = load ptr, ptr %opaque, align 8
  %backup_job = getelementptr inbounds nuw i8, ptr %0, i64 32
  store ptr null, ptr %backup_job, align 8
  %top_id = getelementptr inbounds nuw i8, ptr %0, i64 40
  %1 = load ptr, ptr %top_id, align 8
  %call = tail call ptr @bdrv_lookup_bs(ptr noundef %1, ptr noundef %1, ptr noundef null) #8
  %tobool.not = icmp eq ptr %call, null
  br i1 %tobool.not, label %return, label %if.end

if.end:                                           ; preds = %entry
  %blocker = getelementptr inbounds nuw i8, ptr %0, i64 56
  %2 = load ptr, ptr %blocker, align 8
  tail call void @bdrv_op_unblock_all(ptr noundef nonnull %call, ptr noundef %2) #8
  %3 = load ptr, ptr %blocker, align 8
  tail call void @error_free(ptr noundef %3) #8
  tail call fastcc void @reopen_backing_file(ptr noundef nonnull %bs, i1 noundef zeroext false, ptr noundef null)
  br label %return

return:                                           ; preds = %entry, %if.end
  ret void
}